target datalayout = "e-m:e-p270:32:32-p271:32:32-p272:64:64-i64:64-i128:128-f80:128-n8:16:32:64-S128"
target triple = "x86_64-pc-linux-gnu"

%struct._cmstransform_struct = type { i32, i32, ptr, ptr, ptr, ptr, ptr, %struct._cmsCACHE, ptr, ptr, ptr, ptr, i32, i32, %struct.cmsCIEXYZ, %struct.cmsCIEXYZ, ptr, i32, double, i32, ptr, ptr, ptr, ptr, ptr, i32, i32 }
%struct._cmsCACHE = type { [16 x i16], [16 x i16] }
%struct.cmsCIEXYZ = type { double, double, double }

; Function Attrs: nounwind uwtable
define internal ptr @UnrollAnyWords(ptr noundef %0, ptr noundef %1, ptr noundef %2, i32 noundef %3) #0 {
  %5 = alloca ptr, align 8
  %6 = alloca ptr, align 8
  %7 = alloca ptr, align 8
  %8 = alloca i32, align 4
  %9 = alloca i32, align 4
  %10 = alloca i32, align 4
  %11 = alloca i32, align 4
  %12 = alloca i32, align 4
  %13 = alloca i32, align 4
  %14 = alloca i32, align 4
  %15 = alloca i32, align 4
  %16 = alloca i32, align 4
  %17 = alloca i32, align 4
  %18 = alloca i16, align 2
  %19 = alloca i16, align 2
  store ptr %0, ptr %5, align 8
  store ptr %1, ptr %6, align 8
  store ptr %2, ptr %7, align 8
  store i32 %3, ptr %8, align 4
  %20 = load ptr, ptr %5, align 8
  %21 = getelementptr inbounds %struct._cmstransform_struct, ptr %20, i32 0, i32 0
  %22 = load i32, ptr %21, align 8
  %23 = lshr i32 %22, 3
  %24 = and i32 %23, 15
  store i32 %24, ptr %9, align 4
  %25 = load ptr, ptr %5, align 8
  %26 = getelementptr inbounds %struct._cmstransform_struct, ptr %25, i32 0, i32 0
  %27 = load i32, ptr %26, align 8
  %28 = lshr i32 %27, 11
  %29 = and i32 %28, 1
  store i32 %29, ptr %10, align 4
  %30 = load ptr, ptr %5, align 8
  %31 = getelementptr inbounds %struct._cmstransform_struct, ptr %30, i32 0, i32 0
  %32 = load i32, ptr %31, align 8
  %33 = lshr i32 %32, 10
  %34 = and i32 %33, 1
  store i32 %34, ptr %11, align 4
  %35 = load ptr, ptr %5, align 8
  %36 = getelementptr inbounds %struct._cmstransform_struct, ptr %35, i32 0, i32 0
  %37 = load i32, ptr %36, align 8
  %38 = lshr i32 %37, 13
  %39 = and i32 %38, 1
  store i32 %39, ptr %12, align 4
  %40 = load ptr, ptr %5, align 8
  %41 = getelementptr inbounds %struct._cmstransform_struct, ptr %40, i32 0, i32 0
  %42 = load i32, ptr %41, align 8
  %43 = lshr i32 %42, 14
  %44 = and i32 %43, 1
  store i32 %44, ptr %13, align 4
  %45 = load ptr, ptr %5, align 8
  %46 = getelementptr inbounds %struct._cmstransform_struct, ptr %45, i32 0, i32 0
  %47 = load i32, ptr %46, align 8
  %48 = lshr i32 %47, 7
  %49 = and i32 %48, 7
  store i32 %49, ptr %14, align 4
  %50 = load i32, ptr %11, align 4
  %51 = load i32, ptr %13, align 4
  %52 = xor i32 %50, %51
  store i32 %52, ptr %15, align 4
  %53 = load i32, ptr %15, align 4
  %54 = icmp ne i32 %53, 0
  br i1 %54, label %55, label %61

55:                                               ; preds = %4
  %56 = load i32, ptr %14, align 4
  %57 = zext i32 %56 to i64
  %58 = mul i64 %57, 2
  %59 = load ptr, ptr %7, align 8
  %60 = getelementptr inbounds i8, ptr %59, i64 %58
  store ptr %60, ptr %7, align 8
  br label %61

61:                                               ; preds = %55, %4
  store i32 0, ptr %16, align 4
  br label %62

62:                                               ; preds = %114, %61
  %63 = load i32, ptr %16, align 4
  %64 = load i32, ptr %9, align 4
  %65 = icmp ult i32 %63, %64
  br i1 %65, label %66, label %117

66:                                               ; preds = %62
  %67 = load i32, ptr %11, align 4
  %68 = icmp ne i32 %67, 0
  br i1 %68, label %69, label %74

69:                                               ; preds = %66
  %70 = load i32, ptr %9, align 4
  %71 = load i32, ptr %16, align 4
  %72 = sub i32 %70, %71
  %73 = sub i32 %72, 1
  br label %76

74:                                               ; preds = %66
  %75 = load i32, ptr %16, align 4
  br label %76

76:                                               ; preds = %74, %69
  %77 = phi i32 [ %73, %69 ], [ %75, %74 ]
  store i32 %77, ptr %17, align 4
  %78 = load ptr, ptr %7, align 8
  %79 = load i16, ptr %78, align 2
  store i16 %79, ptr %18, align 2
  %80 = load i32, ptr %10, align 4
  %81 = icmp ne i32 %80, 0
  br i1 %81, label %82, label %93

82:                                               ; preds = %76
  %83 = load i16, ptr %18, align 2
  %84 = zext i16 %83 to i32
  %85 = shl i32 %84, 8
  %86 = trunc i32 %85 to i16
  %87 = zext i16 %86 to i32
  %88 = load i16, ptr %18, align 2
  %89 = zext i16 %88 to i32
  %90 = ashr i32 %89, 8
  %91 = or i32 %87, %90
  %92 = trunc i32 %91 to i16
  store i16 %92, ptr %18, align 2
  br label %93

93:                                               ; preds = %82, %76
  %94 = load i32, ptr %12, align 4
  %95 = icmp ne i32 %94, 0
  br i1 %95, label %96, label %102

96:                                               ; preds = %93
  %97 = load i16, ptr %18, align 2
  %98 = zext i16 %97 to i32
  %99 = sub nsw i32 65535, %98
  %100 = trunc i32 %99 to i16
  %101 = zext i16 %100 to i32
  br label %105

102:                                              ; preds = %93
  %103 = load i16, ptr %18, align 2
  %104 = zext i16 %103 to i32
  br label %105

105:                                              ; preds = %102, %96
  %106 = phi i32 [ %101, %96 ], [ %104, %102 ]
  %107 = trunc i32 %106 to i16
  %108 = load ptr, ptr %6, align 8
  %109 = load i32, ptr %17, align 4
  %110 = zext i32 %109 to i64
  %111 = getelementptr inbounds i16, ptr %108, i64 %110
  store i16 %107, ptr %111, align 2
  %112 = load ptr, ptr %7, align 8
  %113 = getelementptr inbounds i8, ptr %112, i64 2
  store ptr %113, ptr %7, align 8
  br label %114

114:                                              ; preds = %105
  %115 = load i32, ptr %16, align 4
  %116 = add i32 %115, 1
  store i32 %116, ptr %16, align 4
  br label %62, !llvm.loop !18

117:                                              ; preds = %62
  %118 = load i32, ptr %15, align 4
  %119 = icmp ne i32 %118, 0
  br i1 %119, label %126, label %120

120:                                              ; preds = %117
  %121 = load i32, ptr %14, align 4
  %122 = zext i32 %121 to i64
  %123 = mul i64 %122, 2
  %124 = load ptr, ptr %7, align 8
  %125 = getelementptr inbounds i8, ptr %124, i64 %123
  store ptr %125, ptr %7, align 8
  br label %126

126:                                              ; preds = %120, %117
  %127 = load i32, ptr %14, align 4
  %128 = icmp eq i32 %127, 0
  br i1 %128, label %129, label %150

129:                                              ; preds = %126
  %130 = load i32, ptr %13, align 4
  %131 = icmp ne i32 %130, 0
  br i1 %131, label %132, label %150

132:                                              ; preds = %129
  %133 = load ptr, ptr %6, align 8
  %134 = getelementptr inbounds i16, ptr %133, i64 0
  %135 = load i16, ptr %134, align 2
  store i16 %135, ptr %19, align 2
  %136 = load ptr, ptr %6, align 8
  %137 = getelementptr inbounds i16, ptr %136, i64 0
  %138 = load ptr, ptr %6, align 8
  %139 = getelementptr inbounds i16, ptr %138, i64 1
  %140 = load i32, ptr %9, align 4
  %141 = sub i32 %140, 1
  %142 = zext i32 %141 to i64
  %143 = mul i64 %142, 2
  call void @llvm.memmove.p0.p0.i64(ptr align 2 %137, ptr align 2 %139, i64 %143, i1 false)
  %144 = load i16, ptr %19, align 2
  %145 = load ptr, ptr %6, align 8
  %146 = load i32, ptr %9, align 4
  %147 = sub i32 %146, 1
  %148 = zext i32 %147 to i64
  %149 = getelementptr inbounds i16, ptr %145, i64 %148
  store i16 %144, ptr %149, align 2
  br label %150

150:                                              ; preds = %132, %129, %126
  %151 = load ptr, ptr %7, align 8
  ret ptr %151
}