; Function Attrs: nofree norecurse nosync nounwind memory(read, argmem: readwrite, inaccessiblemem: none) uwtable
define internal ptr @UnrollAnyWords(ptr nocapture noundef readonly %0, ptr nocapture noundef %1, ptr noundef readonly %2, i32 %3) #5 {
  %5 = load i32, ptr %0, align 8
  %.fr = freeze i32 %5
  %6 = lshr i32 %.fr, 3
  %7 = and i32 %6, 15
  %8 = lshr i32 %.fr, 10
  %9 = and i32 %8, 1
  %10 = lshr i32 %.fr, 14
  %11 = and i32 %10, 1
  %12 = lshr i32 %.fr, 7
  %13 = and i32 %12, 7
  %.not = icmp eq i32 %9, %11
  %14 = shl nuw nsw i32 %13, 1
  %15 = zext nneg i32 %14 to i64
  %.0.idx = select i1 %.not, i64 0, i64 %15
  %.0 = getelementptr inbounds i8, ptr %2, i64 %.0.idx
  %.not59 = icmp eq i32 %7, 0
  br i1 %.not59, label %._crit_edge, label %.lr.ph

.lr.ph:                                           ; preds = %4
  %.not45 = icmp eq i32 %9, 0
  %16 = and i32 %.fr, 2048
  %.not46 = icmp eq i32 %16, 0
  %17 = shl i32 %.fr, 18
  %sext = ashr i32 %17, 31
  %18 = trunc nsw i32 %sext to i16
  %wide.trip.count81 = zext nneg i32 %7 to i64
  br i1 %.not45, label %.lr.ph.split.us, label %.lr.ph.split

.lr.ph.split.us:                                  ; preds = %.lr.ph
  br i1 %.not46, label %.lr.ph.split.us.split.us, label %.lr.ph.split.us.split

.lr.ph.split.us.split.us:                         ; preds = %.lr.ph.split.us, %.lr.ph.split.us.split.us
  %indvars.iv78 = phi i64 [ %indvars.iv.next79, %.lr.ph.split.us.split.us ], [ 0, %.lr.ph.split.us ]
  %.149.us.us = phi ptr [ %21, %.lr.ph.split.us.split.us ], [ %.0, %.lr.ph.split.us ]
  %19 = load i16, ptr %.149.us.us, align 2
  %.v.us.us = xor i16 %19, %18
  %20 = getelementptr inbounds i16, ptr %1, i64 %indvars.iv78
  store i16 %.v.us.us, ptr %20, align 2
  %21 = getelementptr inbounds i8, ptr %.149.us.us, i64 2
  %indvars.iv.next79 = add nuw nsw i64 %indvars.iv78, 1
  %exitcond82.not = icmp eq i64 %indvars.iv.next79, %wide.trip.count81
  br i1 %exitcond82.not, label %._crit_edge, label %.lr.ph.split.us.split.us, !llvm.loop !18

.lr.ph.split.us.split:                            ; preds = %.lr.ph.split.us, %.lr.ph.split.us.split
  %indvars.iv73 = phi i64 [ %indvars.iv.next74, %.lr.ph.split.us.split ], [ 0, %.lr.ph.split.us ]
  %.149.us = phi ptr [ %24, %.lr.ph.split.us.split ], [ %.0, %.lr.ph.split.us ]
  %22 = load i16, ptr %.149.us, align 2
  %rev.us = tail call i16 @llvm.bswap.i16(i16 %22)
  %.v.us = xor i16 %rev.us, %18
  %23 = getelementptr inbounds i16, ptr %1, i64 %indvars.iv73
  store i16 %.v.us, ptr %23, align 2
  %24 = getelementptr inbounds i8, ptr %.149.us, i64 2
  %indvars.iv.next74 = add nuw nsw i64 %indvars.iv73, 1
  %exitcond77.not = icmp eq i64 %indvars.iv.next74, %wide.trip.count81
  br i1 %exitcond77.not, label %._crit_edge, label %.lr.ph.split.us.split, !llvm.loop !18

.lr.ph.split:                                     ; preds = %.lr.ph
  br i1 %.not46, label %.lr.ph.split.split.us, label %.lr.ph.split.split

.lr.ph.split.split.us:                            ; preds = %.lr.ph.split, %.lr.ph.split.split.us
  %indvars.iv68 = phi i64 [ %indvars.iv.next69, %.lr.ph.split.split.us ], [ 0, %.lr.ph.split ]
  %.149.us50 = phi ptr [ %31, %.lr.ph.split.split.us ], [ %.0, %.lr.ph.split ]
  %25 = trunc nuw nsw i64 %indvars.iv68 to i32
  %26 = xor i32 %25, -1
  %27 = add nsw i32 %7, %26
  %28 = load i16, ptr %.149.us50, align 2
  %.v.us54 = xor i16 %28, %18
  %29 = zext i32 %27 to i64
  %30 = getelementptr inbounds i16, ptr %1, i64 %29
  store i16 %.v.us54, ptr %30, align 2
  %31 = getelementptr inbounds i8, ptr %.149.us50, i64 2
  %indvars.iv.next69 = add nuw nsw i64 %indvars.iv68, 1
  %exitcond72.not = icmp eq i64 %indvars.iv.next69, %wide.trip.count81
  br i1 %exitcond72.not, label %._crit_edge, label %.lr.ph.split.split.us, !llvm.loop !18

.lr.ph.split.split:                               ; preds = %.lr.ph.split, %.lr.ph.split.split
  %indvars.iv = phi i64 [ %indvars.iv.next, %.lr.ph.split.split ], [ 0, %.lr.ph.split ]
  %.149 = phi ptr [ %38, %.lr.ph.split.split ], [ %.0, %.lr.ph.split ]
  %32 = trunc nuw nsw i64 %indvars.iv to i32
  %33 = xor i32 %32, -1
  %34 = add nsw i32 %7, %33
  %35 = load i16, ptr %.149, align 2
  %rev = tail call i16 @llvm.bswap.i16(i16 %35)
  %.v = xor i16 %rev, %18
  %36 = zext i32 %34 to i64
  %37 = getelementptr inbounds i16, ptr %1, i64 %36
  store i16 %.v, ptr %37, align 2
  %38 = getelementptr inbounds i8, ptr %.149, i64 2
  %indvars.iv.next = add nuw nsw i64 %indvars.iv, 1
  %exitcond.not = icmp eq i64 %indvars.iv.next, %wide.trip.count81
  br i1 %exitcond.not, label %._crit_edge, label %.lr.ph.split.split, !llvm.loop !18

._crit_edge:                                      ; preds = %.lr.ph.split.split, %.lr.ph.split.split.us, %.lr.ph.split.us.split, %.lr.ph.split.us.split.us, %4
  %.1.lcssa = phi ptr [ %.0, %4 ], [ %21, %.lr.ph.split.us.split.us ], [ %24, %.lr.ph.split.us.split ], [ %31, %.lr.ph.split.split.us ], [ %38, %.lr.ph.split.split ]
  %39 = icmp eq i32 %13, 0
  %40 = icmp ne i32 %11, 0
  %or.cond = and i1 %39, %40
  br i1 %or.cond, label %41, label %48

41:                                               ; preds = %._crit_edge
  %42 = load i16, ptr %1, align 2
  %43 = getelementptr inbounds i8, ptr %1, i64 2
  %44 = add nsw i32 %7, -1
  %45 = zext i32 %44 to i64
  %46 = shl nuw nsw i64 %45, 1
  tail call void @llvm.memmove.p0.p0.i64(ptr nonnull align 2 %1, ptr nonnull align 2 %43, i64 %46, i1 false)
  %47 = getelementptr inbounds i16, ptr %1, i64 %45
  store i16 %42, ptr %47, align 2
  br label %48

48:                                               ; preds = %41, %._crit_edge
  %.2.idx = select i1 %.not, i64 %15, i64 0
  %.2 = getelementptr inbounds i8, ptr %.1.lcssa, i64 %.2.idx
  ret ptr %.2
}